; Function Attrs: mustprogress nounwind uwtable
define void @_ZN2cv12AsyncPromiseC2Ev(ptr noundef nonnull writeonly align 8 captures(none) dereferenceable(8) %0) unnamed_addr #4 align 2 personality ptr @__gxx_personality_v0 {
  %2 = invoke noalias noundef nonnull dereferenceable(320) ptr @_Znwm(i64 noundef 320) #26
          to label %3 unwind label %20

3:                                                ; preds = %1
  store i32 1, ptr %2, align 8, !tbaa !84
  %4 = getelementptr inbounds nuw i8, ptr %2, i64 4
  store i32 0, ptr %4, align 4, !tbaa !85
  %5 = getelementptr inbounds nuw i8, ptr %2, i64 8
  store i32 1, ptr %5, align 8, !tbaa !39
  %6 = getelementptr inbounds nuw i8, ptr %2, i64 16
  tail call void @llvm.memset.p0.i64(ptr noundef nonnull align 8 dereferenceable(40) %6, i8 0, i64 40, i1 false)
  %7 = getelementptr inbounds nuw i8, ptr %2, i64 56
  tail call void @_ZNSt18condition_variableC1Ev(ptr noundef nonnull align 8 dereferenceable(48) %7) #23
  %8 = getelementptr inbounds nuw i8, ptr %2, i64 104
  store i8 0, ptr %8, align 8, !tbaa !38
  %9 = getelementptr inbounds nuw i8, ptr %2, i64 112
  %10 = getelementptr inbounds nuw i8, ptr %2, i64 152
  store ptr null, ptr %10, align 8, !tbaa !54
  %11 = getelementptr inbounds nuw i8, ptr %2, i64 160
  tail call void @llvm.memset.p0.i64(ptr noundef nonnull align 8 dereferenceable(33) %9, i8 0, i64 33, i1 false)
  invoke void @_ZN2cv9ExceptionC1Ev(ptr noundef nonnull align 8 dereferenceable(148) %11)
          to label %17 unwind label %12

12:                                               ; preds = %3
  %13 = landingpad { ptr, i32 }
          catch ptr null
  %14 = load ptr, ptr %10, align 8, !tbaa !54
  %.not.i.i = icmp eq ptr %14, null
  br i1 %.not.i.i, label %_ZNSt15__exception_ptr13exception_ptrD2Ev.exit.i, label %15

15:                                               ; preds = %12
  tail call void @_ZNSt15__exception_ptr13exception_ptr10_M_releaseEv(ptr noundef nonnull align 8 dereferenceable(8) %10) #23
  br label %_ZNSt15__exception_ptr13exception_ptrD2Ev.exit.i

_ZNSt15__exception_ptr13exception_ptrD2Ev.exit.i: ; preds = %15, %12
  %16 = getelementptr inbounds nuw i8, ptr %2, i64 128
  tail call void @_ZNSt12__shared_ptrIN2cv4UMatELN9__gnu_cxx12_Lock_policyE2EED2Ev(ptr noundef nonnull align 8 dereferenceable(16) %16) #23
  tail call void @_ZNSt12__shared_ptrIN2cv3MatELN9__gnu_cxx12_Lock_policyE2EED2Ev(ptr noundef nonnull align 8 dereferenceable(16) %9) #23
  tail call void @_ZNSt18condition_variableD1Ev(ptr noundef nonnull align 8 dereferenceable(48) %7) #23
  br label %.body

17:                                               ; preds = %3
  %18 = getelementptr inbounds nuw i8, ptr %2, i64 312
  store i8 0, ptr %18, align 8, !tbaa !15
  %19 = getelementptr inbounds nuw i8, ptr %2, i64 313
  store i8 0, ptr %19, align 1, !tbaa !86
  store ptr %2, ptr %0, align 8, !tbaa !87
  ret void

20:                                               ; preds = %1
  %21 = landingpad { ptr, i32 }
          catch ptr null
  br label %.body

.body:                                            ; preds = %_ZNSt15__exception_ptr13exception_ptrD2Ev.exit.i, %20
  %eh.lpad-body = phi { ptr, i32 } [ %21, %20 ], [ %13, %_ZNSt15__exception_ptr13exception_ptrD2Ev.exit.i ]
  %22 = extractvalue { ptr, i32 } %eh.lpad-body, 0
  tail call void @__clang_call_terminate(ptr %22) #27
  unreachable
}